(crbdyn
multiBodyConstructor
p0
((lp1
crbdyn
bodyConstructor
p2
(cspacevecalg
rbinertiaConstructor
p3
(F12.3221
(lp4
F-0.148974189
aF-0.054463682000000006
aF0.264309045
a(lp5
F0.039998550239690005
aF-0.0006494850453800001
aF0.00557819367405
aF-0.0006494850453800001
aF0.040989818330260004
aF0.0016628482989000002
aF0.00557819367405
aF0.0016628482989000002
aF0.04710242104945
atp6
Rp7
I19
S'base_link'
p8
tp9
Rp10
ag2
(g3
(F0.01
(lp11
F0.0
aF0.0
aF0.0
a(lp12
F1e-06
aF0.0
aF0.0
aF0.0
aF1e-06
aF0.0
aF0.0
aF0.0
aF1e-06
atp13
Rp14
I45
S'imu_link'
p15
tp16
Rp17
ag2
(g3
(F1.02901
(lp18
F-0.0264558471
aF0.0
aF0.0263117857
a(lp19
F0.001994667700349
aF1.514e-08
aF0.001076698690347
aF1.514e-08
aF0.00320583388929
aF5.0713e-07
aF0.001076698690347
aF5.0713e-07
aF0.0015224931689409998
atp20
Rp21
I48
S'leg_left_1_link'
p22
tp23
Rp24
ag2
(g3
(F0.69621
(lp25
F0.0003968397
aF0.0061336101
aF-0.0078323625
a(lp26
F0.000983798783106
aF-6.183587757e-06
aF1.1136436625e-05
aF-6.183587757e-06
aF0.000486288716754
aF9.5692823625e-05
aF1.1136436625e-05
aF9.5692823625e-05
aF0.00089623024361
atp27
Rp28
I49
S'leg_left_2_link'
p29
tp30
Rp31
ag2
(g3
(F3.97852
(lp32
F0.5881843968
aF-0.0654864392
aF0.0713348636
a(lp33
F0.00743579263358
aF0.009340750961328
aF-0.012805673544624002
aF0.009340750961328
aF0.11673718934726
aF0.0012046505948560002
aF-0.012805673544624002
aF0.0012046505948560002
aF0.11435901040214401
atp34
Rp35
I50
S'leg_left_3_link'
p36
tp37
Rp38
ag2
(g3
(F2.86055
(lp39
F0.418155199
aF-0.0062932100000000005
aF0.0626174395
a(lp40
F0.004994605732655
aF0.0010421235178
aF-0.0075513348861099994
aF0.0010421235178
aF0.087203113190475
aF0.0002190559169
aF-0.0075513348861099994
aF0.0002190559169
aF0.08386299411182
atp41
Rp42
I51
S'leg_left_4_link'
p43
tp44
Rp45
ag2
(g3
(F0.68213
(lp46
F-0.0001909964
aF0.0076330347
aF0.0058594967
a(lp47
F0.0009560969649460001
aF2.622589716e-06
aF3.9036690760000005e-06
aF2.622589716e-06
aF0.0008711276056449999
aF-9.4490238073e-05
aF3.9036690760000005e-06
aF-9.4490238073e-05
aF0.00046160780728499997
atp48
Rp49
I52
S'leg_left_5_link'
p50
tp51
Rp52
ag2
(g3
(F2.00843
(lp53
F0.12273515730000001
aF0.006748324800000001
aF-0.0099818971
a(lp54
F0.003737309989915
aF-0.00020759717852800004
aF0.001734386701781
aF-0.00020759717852800004
aF0.01287613575119
aF0.000154876724256
aF0.001734386701781
aF0.000154876724256
aF0.011053934463931001
atp55
Rp56
I53
S'leg_left_6_link'
p57
tp58
Rp59
ag2
(g3
(F0.001
(lp60
F0.0
aF0.0
aF0.0
a(lp61
F0.0
aF0.0
aF0.0
aF0.0
aF0.0
aF0.0
aF0.0
aF0.0
aF0.0
atp62
Rp63
I47
S'left_sole_link'
p64
tp65
Rp66
ag2
(g3
(F0.001
(lp67
F0.0
aF0.0
aF0.0
a(lp68
F3.7174e-05
aF4.9927e-08
aF1.1015e-05
aF4.9927e-08
aF4.2412e-05
aF-9.8165e-09
aF1.1015e-05
aF-9.8165e-09
aF4.167e-05
atp69
Rp70
I46
S'left_laser_link'
p71
tp72
Rp73
ag2
(g3
(F1.02901
(lp74
F-0.0264558471
aF0.0
aF0.0263117857
a(lp75
F0.001994667700349
aF1.514e-08
aF0.001076698690347
aF1.514e-08
aF0.00320583388929
aF5.0713e-07
aF0.001076698690347
aF5.0713e-07
aF0.0015224931689409998
atp76
Rp77
I54
S'leg_right_1_link'
p78
tp79
Rp80
ag2
(g3
(F0.69621
(lp81
F0.0003968397
aF-0.0061336101
aF-0.0078323625
a(lp82
F0.000983798783106
aF8.087277570000002e-07
aF1.1136436625e-05
aF8.087277570000002e-07
aF0.000486288716754
aF-4.2313403625e-05
aF1.1136436625e-05
aF-4.2313403625e-05
aF0.00089623024361
atp83
Rp84
I55
S'leg_right_2_link'
p85
tp86
Rp87
ag2
(g3
(F3.97852
(lp88
F0.5881843968
aF-0.0654864392
aF-0.0713348636
a(lp89
F0.00743579263358
aF0.009340750961328
aF0.008286618924624001
aF0.009340750961328
aF0.11673718934726
aF-0.001143693114856
aF0.008286618924624001
aF-0.001143693114856
aF0.11435901040214401
atp90
Rp91
I56
S'leg_right_3_link'
p92
tp93
Rp94
ag2
(g3
(F2.86055
(lp95
F0.418155199
aF-0.0062932100000000005
aF-0.0626174395
a(lp96
F0.004994605732655
aF0.0010421235178
aF0.010755499726109998
aF0.0010421235178
aF0.087203113190475
aF-5.6460816899999995e-05
aF0.010755499726109998
aF-5.6460816899999995e-05
aF0.08386299411182
atp97
Rp98
I57
S'leg_right_4_link'
p99
tp100
Rp101
ag2
(g3
(F0.68213
(lp102
F-0.0001909964
aF0.0076330347
aF-0.0058594967
a(lp103
F0.0009560969649460001
aF2.622589716e-06
aF6.22350924e-07
aF2.622589716e-06
aF0.0008711276056449999
aF3.664529807300001e-05
aF6.22350924e-07
aF3.664529807300001e-05
aF0.00046160780728499997
atp104
Rp105
I58
S'leg_right_5_link'
p106
tp107
Rp108
ag2
(g3
(F2.00843
(lp109
F0.12273515730000001
aF-0.006748324800000001
aF-0.0099818971
a(lp110
F0.003737309989915
aF0.0006171830785280001
aF0.001734386701781
aF0.0006171830785280001
aF0.01287613575119
aF8.7798375744e-05
aF0.001734386701781
aF8.7798375744e-05
aF0.011053934463931001
atp111
Rp112
I59
S'leg_right_6_link'
p113
tp114
Rp115
ag2
(g3
(F0.001
(lp116
F0.0
aF0.0
aF0.0
a(lp117
F0.0
aF0.0
aF0.0
aF0.0
aF0.0
aF0.0
aF0.0
aF0.0
aF0.0
atp118
Rp119
I61
S'right_sole_link'
p120
tp121
Rp122
ag2
(g3
(F0.001
(lp123
F0.0
aF0.0
aF0.0
a(lp124
F3.7174e-05
aF4.9927e-08
aF1.1015e-05
aF4.9927e-08
aF4.2412e-05
aF-9.8165e-09
aF1.1015e-05
aF-9.8165e-09
aF4.167e-05
atp125
Rp126
I60
S'right_laser_link'
p127
tp128
Rp129
ag2
(g3
(F1.58341
(lp130
F-0.0001741751
aF-3.16682e-05
aF-0.010593012899999999
a(lp131
F0.003730053389665
aF3.64046498e-07
aF1.8123585809999998e-06
aF3.64046498e-07
aF0.001230439965562
aF3.555974199999997e-08
aF1.8123585809999998e-06
aF3.555974199999997e-08
aF0.003604420842625
atp132
Rp133
I66
S'torso_1_link'
p134
tp135
Rp136
ag2
(g3
(F11.18103
(lp137
F-0.20304750479999997
aF-2.0076657468
aF-0.0115164609
a(lp138
F0.520345014450135
aF-0.040234940111887996
aF0.0007336626900559999
aF-0.040234940111887996
aF0.08854558059189499
aF-0.0018656906392039998
aF0.0007336626900559999
aF-0.0018656906392039998
aF0.496723558822576
atp139
Rp140
I67
S'torso_2_link'
p141
tp142
Rp143
ag2
(g3
(F1.53614
(lp144
F0.0107683414
aF-0.0001689754
aF-0.2861367978
a(lp145
F0.0565718532035
aF-3.4160224459999995e-06
aF0.001754605272578
aF-3.4160224459999995e-06
aF0.05653466541942
aF-2.8343467758e-05
aF0.001754605272578
aF-2.8343467758e-05
aF0.001651929940508
atp146
Rp147
I0
S'arm_left_1_link'
p148
tp149
Rp150
ag2
(g3
(F1.60393
(lp151
F0.0230163955
aF-0.1009513542
aF-0.0166648327
a(lp152
F0.011146587945101
aF0.0008809594827699999
aF0.000422909959245
aF0.0008809594827699999
aF0.002357275257178
aF-0.0018317541501379998
aF0.000422909959245
aF-0.0018317541501379998
aF0.011619765708773
atp153
Rp154
I1
S'arm_left_2_link'
p155
tp156
Rp157
ag2
(g3
(F1.64293
(lp158
F0.0099561558
aF-0.018565109
aF-0.0944356164
a(lp159
F0.009364811482372
aF2.527582053999999e-05
aF0.000284278075384
aF2.527582053999999e-05
aF0.008933123794820001
aF-0.0006393565853199999
aF0.000284278075384
aF-0.0006393565853199999
aF0.002192410295848
atp160
Rp161
I2
S'arm_left_3_link'
p162
tp163
Rp164
ag2
(g3
(F1.20222
(lp165
F-0.049639663800000004
aF0.014186196
aF0.0166747914
a(lp166
F0.001962233959518
aF0.00023260703284
aF0.0012225266569060001
aF0.00023260703284
aF0.00505276301502
aF-0.00035218226852
aF0.0012225266569060001
aF-0.00035218226852
aF0.0052907098911020006
atp167
Rp168
I3
S'arm_left_4_link'
p169
tp170
Rp171
ag2
(g3
(F1.21524
(lp172
F-0.0005347056000000001
aF0.0001458288
aF-0.090474618
a(lp173
F0.008670848279556
aF-2.11115328e-07
aF-5.2490361920000006e-05
aF-2.11115328e-07
aF0.008513745640564
aF6.190574160000001e-06
aF-5.2490361920000006e-05
aF6.190574160000001e-06
aF0.00057126472992
atp174
Rp175
I4
S'arm_left_5_link'
p176
tp177
Rp178
ag2
(g3
(F0.41597
(lp179
F-2.07985e-05
aF-0.0010482444
aF-2.9117899999999998e-05
a(lp180
F0.000206040204141
aF-7.694422199999999e-07
aF-6.7995895e-08
aF-7.694422199999999e-07
aF0.000152405688178
aF6.977289200000002e-08
aF-6.7995895e-08
aF6.977289200000002e-08
aF0.000169830715813
atp181
Rp182
I5
S'arm_left_6_link'
p183
tp184
Rp185
ag2
(g3
(F0.06697
(lp186
F-2.6788e-06
aF0.0
aF0.0019334239
a(lp187
F6.8189747993e-05
aF2e-11
aF1.01366956e-07
aF2e-11
aF6.8239375145e-05
aF1e-11
aF1.01366956e-07
aF1e-11
aF5.951507152e-06
atp188
Rp189
I6
S'arm_left_7_link'
p190
tp191
Rp192
ag2
(g3
(F0.1
(lp193
F0.0
aF0.0
aF0.0
a(lp194
F0.0
aF0.0
aF0.0
aF0.0
aF0.0
aF0.0
aF0.0
aF0.0
aF0.0
atp195
Rp196
I7
S'arm_left_tool_link'
p197
tp198
Rp199
ag2
(g3
(F0.68275
(lp200
F0.04030956
aF0.006315437499999999
aF-0.0005120625
a(lp201
F0.00051523668375
aF-0.00035401021999999997
aF1.987257e-05
aF-0.00035401021999999997
aF0.0031410345392750005
aF2.073468124999999e-06
aF1.987257e-05
aF2.073468124999999e-06
aF0.0029635094692750004
atp202
Rp203
I29
S'hand_left_palm_link'
p204
tp205
Rp206
ag2
(g3
(F0.01
(lp207
F0.0
aF0.0
aF0.0
a(lp208
F1e-05
aF0.0
aF0.0
aF0.0
aF1e-05
aF0.0
aF0.0
aF0.0
aF1e-05
atp209
Rp210
I20
S'hand_left_grasping_frame'
p211
tp212
Rp213
ag2
(g3
(F0.055
(lp214
F9.625000000000001e-05
aF-0.0010103500000000001
aF-0.0001089
a(lp215
F3.3276961500000005e-05
aF1.1132325000000004e-06
aF-2.0596499999999995e-07
aF1.1132325000000004e-06
aF7.6835595e-06
aF-1.8788130000000003e-06
aF-2.0596499999999995e-07
aF-1.8788130000000003e-06
aF3.1352657e-05
atp216
Rp217
I21
S'hand_left_index_1_link'
p218
tp219
Rp220
ag2
(g3
(F0.02972
(lp221
F5.37932e-05
aF-0.00037893
aF-1.9020800000000003e-05
a(lp222
F9.125460812e-06
aF1.8608329999999988e-07
aF4.577648000000003e-09
aF1.8608329999999988e-07
aF2.653879004e-06
aF-1.6489519999999998e-07
aF4.577648000000003e-09
aF-1.6489519999999998e-07
aF8.380243192e-06
atp223
Rp224
I22
S'hand_left_index_2_link'
p225
tp226
Rp227
ag2
(g3
(F0.01522
(lp228
F0.0
aF-0.0001071488
aF2.8918e-06
a(lp229
F2.039656994e-06
aF-8.056e-08
aF-1.698e-08
aF-8.056e-08
aF8.01939442e-07
aF-8.481727999999999e-09
aF-1.698e-08
aF-8.481727999999999e-09
aF1.663607552e-06
atp230
Rp231
I23
S'hand_left_index_3_link'
p232
tp233
Rp234
ag2
(g3
(F0.055
(lp235
F9.625000000000001e-05
aF-0.0010103500000000001
aF-0.0001089
a(lp236
F3.3276961500000005e-05
aF1.1132325000000004e-06
aF-2.0596499999999995e-07
aF1.1132325000000004e-06
aF7.6835595e-06
aF-1.8788130000000003e-06
aF-2.0596499999999995e-07
aF-1.8788130000000003e-06
aF3.1352657e-05
atp237
Rp238
I24
S'hand_left_index_link'
p239
tp240
Rp241
ag2
(g3
(F0.055
(lp242
F9.625000000000001e-05
aF-0.0010103500000000001
aF-0.0001089
a(lp243
F3.3276961500000005e-05
aF1.1132325000000004e-06
aF-2.0596499999999995e-07
aF1.1132325000000004e-06
aF7.6835595e-06
aF-1.8788130000000003e-06
aF-2.0596499999999995e-07
aF-1.8788130000000003e-06
aF3.1352657e-05
atp244
Rp245
I25
S'hand_left_middle_1_link'
p246
tp247
Rp248
ag2
(g3
(F0.02972
(lp249
F5.37932e-05
aF-0.00037893
aF-1.9020800000000003e-05
a(lp250
F9.125460812e-06
aF1.8608329999999988e-07
aF4.577648000000003e-09
aF1.8608329999999988e-07
aF2.653879004e-06
aF-1.6489519999999998e-07
aF4.577648000000003e-09
aF-1.6489519999999998e-07
aF8.380243192e-06
atp251
Rp252
I26
S'hand_left_middle_2_link'
p253
tp254
Rp255
ag2
(g3
(F0.01522
(lp256
F0.0
aF-0.0001071488
aF2.8918e-06
a(lp257
F2.039656994e-06
aF-8.056e-08
aF-1.698e-08
aF-8.056e-08
aF8.01939442e-07
aF-8.481727999999999e-09
aF-1.698e-08
aF-8.481727999999999e-09
aF1.663607552e-06
atp258
Rp259
I27
S'hand_left_middle_3_link'
p260
tp261
Rp262
ag2
(g3
(F0.055
(lp263
F9.625000000000001e-05
aF-0.0010103500000000001
aF-0.0001089
a(lp264
F3.3276961500000005e-05
aF1.1132325000000004e-06
aF-2.0596499999999995e-07
aF1.1132325000000004e-06
aF7.6835595e-06
aF-1.8788130000000003e-06
aF-2.0596499999999995e-07
aF-1.8788130000000003e-06
aF3.1352657e-05
atp265
Rp266
I28
S'hand_left_middle_link'
p267
tp268
Rp269
ag2
(g3
(F0.07088
(lp270
F3.47312e-05
aF0.0003196688
aF0.0029620752
a(lp271
F0.00019516322889600002
aF3.3025122880000002e-06
aF2.7986631519999997e-06
aF3.3025122880000002e-06
aF0.00015055673089599999
aF1.0459690847999998e-05
aF2.7986631519999997e-06
aF1.0459690847999998e-05
aF4.9330394576000004e-05
atp272
Rp273
I30
S'hand_left_thumb_link'
p274
tp275
Rp276
ag2
(g3
(F1.53614
(lp277
F0.0107683414
aF-0.0001689754
aF0.2861367978
a(lp278
F0.0565718532035
aF-3.4160224459999995e-06
aF-0.002257032632578
aF-3.4160224459999995e-06
aF0.05653466541942
aF3.4606627758e-05
aF-0.002257032632578
aF3.4606627758e-05
aF0.001651929940508
atp279
Rp280
I8
S'arm_right_1_link'
p281
tp282
Rp283
ag2
(g3
(F1.60393
(lp284
F0.0230163955
aF-0.1009513542
aF0.0166648327
a(lp285
F0.011146587945101
aF0.0008809594827699999
aF-5.537073924500002e-05
aF0.0008809594827699999
aF0.002357275257178
aF0.0002660149901379999
aF-5.537073924500002e-05
aF0.0002660149901379999
aF0.011619765708773
atp286
Rp287
I9
S'arm_right_2_link'
p288
tp289
Rp290
ag2
(g3
(F1.64293
(lp291
F0.0099561558
aF-0.018565109
aF0.0944356164
a(lp292
F0.009364811482372
aF2.527582053999999e-05
aF-0.000860281595384
aF2.527582053999999e-05
aF0.008933123794820001
aF0.00149488834532
aF-0.000860281595384
aF0.00149488834532
aF0.002192410295848
atp293
Rp294
I10
S'arm_right_3_link'
p295
tp296
Rp297
ag2
(g3
(F1.20222
(lp298
F-0.049639663800000004
aF0.014186196
aF-0.0166747914
a(lp299
F0.001962233959518
aF0.00023260703284
aF-0.0001544776169060001
aF0.00023260703284
aF0.00505276301502
aF4.134280852000001e-05
aF-0.0001544776169060001
aF4.134280852000001e-05
aF0.0052907098911020006
atp300
Rp301
I11
S'arm_right_4_link'
p302
tp303
Rp304
ag2
(g3
(F1.21524
(lp305
F-0.0005347056000000001
aF0.0001458288
aF0.090474618
a(lp306
F0.008670848279556
aF-2.11115328e-07
aF2.7127301920000007e-05
aF-2.11115328e-07
aF0.008513745640564
aF-1.552333416e-05
aF2.7127301920000007e-05
aF-1.552333416e-05
aF0.00057126472992
atp307
Rp308
I12
S'arm_right_5_link'
p309
tp310
Rp311
ag2
(g3
(F0.41597
(lp312
F-2.07985e-05
aF-0.0010482444
aF2.9117899999999998e-05
a(lp313
F0.000206040204141
aF-7.694422199999999e-07
aF-6.5084105e-08
aF-7.694422199999999e-07
aF0.000152405688178
aF2.1652710799999999e-07
aF-6.5084105e-08
aF2.1652710799999999e-07
aF0.000169830715813
atp314
Rp315
I13
S'arm_right_6_link'
p316
tp317
Rp318
ag2
(g3
(F0.06697
(lp319
F-2.6788e-06
aF0.0
aF-0.0019334239
a(lp320
F6.8189747993e-05
aF2e-11
aF-5.3306956e-08
aF2e-11
aF6.8239375145e-05
aF1e-11
aF-5.3306956e-08
aF1e-11
aF5.951507152e-06
atp321
Rp322
I14
S'arm_right_7_link'
p323
tp324
Rp325
ag2
(g3
(F0.1
(lp326
F0.0
aF0.0
aF0.0
a(lp327
F0.0
aF0.0
aF0.0
aF0.0
aF0.0
aF0.0
aF0.0
aF0.0
aF0.0
atp328
Rp329
I15
S'arm_right_tool_link'
p330
tp331
Rp332
ag2
(g3
(F0.68275
(lp333
F0.04030956
aF-0.006315437499999999
aF-0.0005120625
a(lp334
F0.00051523668375
aF0.00039171664
aF1.987257e-05
aF0.00039171664
aF0.0031410345392750005
aF-7.399688124999999e-06
aF1.987257e-05
aF-7.399688124999999e-06
aF0.0029635094692750004
atp335
Rp336
I40
S'hand_right_palm_link'
p337
tp338
Rp339
ag2
(g3
(F0.01
(lp340
F0.0
aF0.0
aF0.0
a(lp341
F1e-05
aF0.0
aF0.0
aF0.0
aF1e-05
aF0.0
aF0.0
aF0.0
aF1e-05
atp342
Rp343
I31
S'hand_right_grasping_frame'
p344
tp345
Rp346
ag2
(g3
(F0.055
(lp347
F9.625000000000001e-05
aF-0.0010103500000000001
aF-0.0001089
a(lp348
F3.3276961500000005e-05
aF1.1132325000000004e-06
aF-2.0596499999999995e-07
aF1.1132325000000004e-06
aF7.6835595e-06
aF-1.8788130000000003e-06
aF-2.0596499999999995e-07
aF-1.8788130000000003e-06
aF3.1352657e-05
atp349
Rp350
I32
S'hand_right_index_1_link'
p351
tp352
Rp353
ag2
(g3
(F0.02972
(lp354
F5.37932e-05
aF-0.00037893
aF-1.9020800000000003e-05
a(lp355
F9.125460812e-06
aF1.8608329999999988e-07
aF4.577648000000003e-09
aF1.8608329999999988e-07
aF2.653879004e-06
aF-1.6489519999999998e-07
aF4.577648000000003e-09
aF-1.6489519999999998e-07
aF8.380243192e-06
atp356
Rp357
I33
S'hand_right_index_2_link'
p358
tp359
Rp360
ag2
(g3
(F0.01522
(lp361
F0.0
aF-0.0001071488
aF2.8918e-06
a(lp362
F2.039656994e-06
aF-8.056e-08
aF-1.698e-08
aF-8.056e-08
aF8.01939442e-07
aF-8.481727999999999e-09
aF-1.698e-08
aF-8.481727999999999e-09
aF1.663607552e-06
atp363
Rp364
I34
S'hand_right_index_3_link'
p365
tp366
Rp367
ag2
(g3
(F0.055
(lp368
F9.625000000000001e-05
aF-0.0010103500000000001
aF-0.0001089
a(lp369
F3.3276961500000005e-05
aF1.1132325000000004e-06
aF-2.0596499999999995e-07
aF1.1132325000000004e-06
aF7.6835595e-06
aF-1.8788130000000003e-06
aF-2.0596499999999995e-07
aF-1.8788130000000003e-06
aF3.1352657e-05
atp370
Rp371
I35
S'hand_right_index_link'
p372
tp373
Rp374
ag2
(g3
(F0.055
(lp375
F9.625000000000001e-05
aF-0.0010103500000000001
aF-0.0001089
a(lp376
F3.3276961500000005e-05
aF1.1132325000000004e-06
aF-2.0596499999999995e-07
aF1.1132325000000004e-06
aF7.6835595e-06
aF-1.8788130000000003e-06
aF-2.0596499999999995e-07
aF-1.8788130000000003e-06
aF3.1352657e-05
atp377
Rp378
I36
S'hand_right_middle_1_link'
p379
tp380
Rp381
ag2
(g3
(F0.02972
(lp382
F5.37932e-05
aF-0.00037893
aF-1.9020800000000003e-05
a(lp383
F9.125460812e-06
aF1.8608329999999988e-07
aF4.577648000000003e-09
aF1.8608329999999988e-07
aF2.653879004e-06
aF-1.6489519999999998e-07
aF4.577648000000003e-09
aF-1.6489519999999998e-07
aF8.380243192e-06
atp384
Rp385
I37
S'hand_right_middle_2_link'
p386
tp387
Rp388
ag2
(g3
(F0.01522
(lp389
F0.0
aF-0.0001071488
aF2.8918e-06
a(lp390
F2.039656994e-06
aF-8.056e-08
aF-1.698e-08
aF-8.056e-08
aF8.01939442e-07
aF-8.481727999999999e-09
aF-1.698e-08
aF-8.481727999999999e-09
aF1.663607552e-06
atp391
Rp392
I38
S'hand_right_middle_3_link'
p393
tp394
Rp395
ag2
(g3
(F0.055
(lp396
F9.625000000000001e-05
aF-0.0010103500000000001
aF-0.0001089
a(lp397
F3.3276961500000005e-05
aF1.1132325000000004e-06
aF-2.0596499999999995e-07
aF1.1132325000000004e-06
aF7.6835595e-06
aF-1.8788130000000003e-06
aF-2.0596499999999995e-07
aF-1.8788130000000003e-06
aF3.1352657e-05
atp398
Rp399
I39
S'hand_right_middle_link'
p400
tp401
Rp402
ag2
(g3
(F0.07088
(lp403
F3.47312e-05
aF0.0003196688
aF-0.0029620752
a(lp404
F0.00019516322889600002
aF3.3025122880000002e-06
aF5.701496848e-06
aF3.3025122880000002e-06
aF0.00015055673089599999
aF3.7177609152e-05
aF5.701496848e-06
aF3.7177609152e-05
aF4.9330394576000004e-05
atp405
Rp406
I41
S'hand_right_thumb_link'
p407
tp408
Rp409
ag2
(g3
(F0.05
(lp410
F0.0
aF0.0
aF0.0
a(lp411
F0.01
aF0.0
aF0.0
aF0.0
aF0.01
aF0.0
aF0.0
aF0.0
aF0.01
atp412
Rp413
I17
S'back_camera_link'
p414
tp415
Rp416
ag2
(g3
(F0.1
(lp417
F0.0
aF0.0
aF0.0
a(lp418
F0.0
aF0.0
aF0.0
aF0.0
aF0.0
aF0.0
aF0.0
aF0.0
aF0.0
atp419
Rp420
I16
S'back_camera_gazebo_back_camera_link'
p421
tp422
Rp423
ag2
(g3
(F0.05
(lp424
F0.0
aF0.0
aF0.0
a(lp425
F0.0
aF0.0
aF0.0
aF0.0
aF0.0
aF0.0
aF0.0
aF0.0
aF0.0
atp426
Rp427
I18
S'back_camera_optical_frame'
p428
tp429
Rp430
ag2
(g3
(F1.11967
(lp431
F0.0203667973
aF0.0027767816
aF-0.0057886939
a(lp432
F0.001150516255831
aF-1.0587677304e-05
aF-1.9345207959000008e-05
aF-1.0587677304e-05
aF0.00151401446035
aF3.3787580872e-05
aF-1.9345207959000008e-05
aF3.3787580872e-05
aF0.001525299071255
atp433
Rp434
I42
S'head_1_link'
p435
tp436
Rp437
ag2
(g3
(F1.63134
(lp438
F0.0192987522
aF-0.1321059132
aF0.0016965936
a(lp439
F0.01710169223828
aF0.0016847836231560001
aF-2.9040812288e-05
aF0.0016847836231560001
aF0.00699235460587
aF8.2157249728e-05
aF-2.9040812288e-05
aF8.2157249728e-05
aF0.017068165469462
atp440
Rp441
I43
S'head_2_link'
p442
tp443
Rp444
ag2
(g3
(F0.001
(lp445
F0.0
aF0.0
aF0.0
a(lp446
F0.0001
aF0.0
aF0.0
aF0.0
aF1e-06
aF0.0
aF0.0
aF0.0
aF0.0001
atp447
Rp448
I44
S'head_sonar_03_link'
p449
tp450
Rp451
ag2
(g3
(F0.01
(lp452
F0.0
aF0.0
aF0.0
a(lp453
F0.0
aF0.0
aF0.0
aF0.0
aF0.0
aF0.0
aF0.0
aF0.0
aF0.0
atp454
Rp455
I64
S'stereo_link'
p456
tp457
Rp458
ag2
(g3
(F0.1
(lp459
F0.0
aF0.0
aF0.0
a(lp460
F0.0
aF0.0
aF0.0
aF0.0
aF0.0
aF0.0
aF0.0
aF0.0
aF0.0
atp461
Rp462
I62
S'stereo_gazebo_left_camera_link'
p463
tp464
Rp465
ag2
(g3
(F0.1
(lp466
F0.0
aF0.0
aF0.0
a(lp467
F0.0
aF0.0
aF0.0
aF0.0
aF0.0
aF0.0
aF0.0
aF0.0
aF0.0
atp468
Rp469
I63
S'stereo_gazebo_right_camera_link'
p470
tp471
Rp472
ag2
(g3
(F0.01
(lp473
F0.0
aF0.0
aF0.0
a(lp474
F0.0
aF0.0
aF0.0
aF0.0
aF0.0
aF0.0
aF0.0
aF0.0
aF0.0
atp475
Rp476
I65
S'stereo_optical_frame'
p477
tp478
Rp479
ag2
(g3
(F0.001
(lp480
F0.0
aF0.0
aF0.0
a(lp481
F0.0001
aF0.0
aF0.0
aF0.0
aF1e-06
aF0.0
aF0.0
aF0.0
aF0.0001
atp482
Rp483
I68
S'torso_sonar_01_link'
p484
tp485
Rp486
ag2
(g3
(F0.001
(lp487
F0.0
aF0.0
aF0.0
a(lp488
F0.0001
aF0.0
aF0.0
aF0.0
aF1e-06
aF0.0
aF0.0
aF0.0
aF0.0001
atp489
Rp490
I69
S'torso_sonar_02_link'
p491
tp492
Rp493
ag2
(g3
(F0.001
(lp494
F0.0
aF0.0
aF0.0
a(lp495
F0.0001
aF0.0
aF0.0
aF0.0
aF1e-06
aF0.0
aF0.0
aF0.0
aF0.0001
atp496
Rp497
I70
S'torso_sonar_04_link'
p498
tp499
Rp500
a(lp501
crbdyn
jointConstructor
p502
(I6
(lp503
F0.0
aF0.0
aF1.0
aI01
I-1
S'Root'
p504
tp505
Rp506
ag502
(I6
(lp507
F0.0
aF0.0
aF1.0
aI01
I44
S'imu_joint'
p508
tp509
Rp510
ag502
(I0
(lp511
F0.0
aF0.0
aF1.0
aI01
I47
S'leg_left_1_joint'
p512
tp513
Rp514
ag502
(I0
(lp515
F0.0
aF0.0
aF1.0
aI01
I48
S'leg_left_2_joint'
p516
tp517
Rp518
ag502
(I0
(lp519
F0.0
aF0.0
aF1.0
aI01
I49
S'leg_left_3_joint'
p520
tp521
Rp522
ag502
(I0
(lp523
F0.0
aF0.0
aF1.0
aI01
I50
S'leg_left_4_joint'
p524
tp525
Rp526
ag502
(I0
(lp527
F0.0
aF0.0
aF1.0
aI01
I51
S'leg_left_5_joint'
p528
tp529
Rp530
ag502
(I0
(lp531
F0.0
aF0.0
aF1.0
aI01
I52
S'leg_left_6_joint'
p532
tp533
Rp534
ag502
(I6
(lp535
F0.0
aF0.0
aF1.0
aI01
I46
S'left_sole_joint'
p536
tp537
Rp538
ag502
(I6
(lp539
F0.0
aF0.0
aF1.0
aI01
I45
S'left_laser_joint'
p540
tp541
Rp542
ag502
(I0
(lp543
F0.0
aF0.0
aF1.0
aI01
I53
S'leg_right_1_joint'
p544
tp545
Rp546
ag502
(I0
(lp547
F0.0
aF0.0
aF1.0
aI01
I54
S'leg_right_2_joint'
p548
tp549
Rp550
ag502
(I0
(lp551
F0.0
aF0.0
aF1.0
aI01
I55
S'leg_right_3_joint'
p552
tp553
Rp554
ag502
(I0
(lp555
F0.0
aF0.0
aF1.0
aI01
I56
S'leg_right_4_joint'
p556
tp557
Rp558
ag502
(I0
(lp559
F0.0
aF0.0
aF1.0
aI01
I57
S'leg_right_5_joint'
p560
tp561
Rp562
ag502
(I0
(lp563
F0.0
aF0.0
aF1.0
aI01
I58
S'leg_right_6_joint'
p564
tp565
Rp566
ag502
(I6
(lp567
F0.0
aF0.0
aF1.0
aI01
I60
S'right_sole_joint'
p568
tp569
Rp570
ag502
(I6
(lp571
F0.0
aF0.0
aF1.0
aI01
I59
S'right_laser_joint'
p572
tp573
Rp574
ag502
(I0
(lp575
F0.0
aF0.0
aF1.0
aI01
I65
S'torso_1_joint'
p576
tp577
Rp578
ag502
(I0
(lp579
F0.0
aF0.0
aF1.0
aI01
I66
S'torso_2_joint'
p580
tp581
Rp582
ag502
(I0
(lp583
F0.0
aF0.0
aF1.0
aI01
I0
S'arm_left_1_joint'
p584
tp585
Rp586
ag502
(I0
(lp587
F0.0
aF0.0
aF1.0
aI01
I1
S'arm_left_2_joint'
p588
tp589
Rp590
ag502
(I0
(lp591
F0.0
aF0.0
aF1.0
aI01
I2
S'arm_left_3_joint'
p592
tp593
Rp594
ag502
(I0
(lp595
F0.0
aF0.0
aF1.0
aI01
I3
S'arm_left_4_joint'
p596
tp597
Rp598
ag502
(I0
(lp599
F0.0
aF0.0
aF1.0
aI01
I4
S'arm_left_5_joint'
p600
tp601
Rp602
ag502
(I0
(lp603
F0.0
aF0.0
aF1.0
aI01
I5
S'arm_left_6_joint'
p604
tp605
Rp606
ag502
(I0
(lp607
F0.0
aF0.0
aF1.0
aI01
I6
S'arm_left_7_joint'
p608
tp609
Rp610
ag502
(I6
(lp611
F0.0
aF0.0
aF1.0
aI01
I7
S'arm_left_tool_joint'
p612
tp613
Rp614
ag502
(I6
(lp615
F0.0
aF0.0
aF1.0
aI01
I28
S'hand_left_palm_joint'
p616
tp617
Rp618
ag502
(I6
(lp619
F0.0
aF0.0
aF1.0
aI01
I19
S'hand_left_grasping_frame_joint'
p620
tp621
Rp622
ag502
(I0
(lp623
F0.0
aF0.0
aF1.0
aI01
I20
S'hand_left_index_1_joint'
p624
tp625
Rp626
ag502
(I0
(lp627
F0.0
aF0.0
aF1.0
aI01
I21
S'hand_left_index_2_joint'
p628
tp629
Rp630
ag502
(I0
(lp631
F0.0
aF0.0
aF1.0
aI01
I22
S'hand_left_index_3_joint'
p632
tp633
Rp634
ag502
(I0
(lp635
F0.0
aF0.0
aF1.0
aI01
I23
S'hand_left_index_joint'
p636
tp637
Rp638
ag502
(I0
(lp639
F0.0
aF0.0
aF1.0
aI01
I24
S'hand_left_middle_1_joint'
p640
tp641
Rp642
ag502
(I0
(lp643
F0.0
aF0.0
aF1.0
aI01
I25
S'hand_left_middle_2_joint'
p644
tp645
Rp646
ag502
(I0
(lp647
F0.0
aF0.0
aF1.0
aI01
I26
S'hand_left_middle_3_joint'
p648
tp649
Rp650
ag502
(I0
(lp651
F0.0
aF0.0
aF1.0
aI01
I27
S'hand_left_middle_joint'
p652
tp653
Rp654
ag502
(I0
(lp655
F0.0
aF0.0
aF1.0
aI01
I29
S'hand_left_thumb_joint'
p656
tp657
Rp658
ag502
(I0
(lp659
F0.0
aF0.0
aF1.0
aI01
I8
S'arm_right_1_joint'
p660
tp661
Rp662
ag502
(I0
(lp663
F0.0
aF0.0
aF1.0
aI01
I9
S'arm_right_2_joint'
p664
tp665
Rp666
ag502
(I0
(lp667
F0.0
aF0.0
aF1.0
aI01
I10
S'arm_right_3_joint'
p668
tp669
Rp670
ag502
(I0
(lp671
F0.0
aF0.0
aF1.0
aI01
I11
S'arm_right_4_joint'
p672
tp673
Rp674
ag502
(I0
(lp675
F0.0
aF0.0
aF1.0
aI01
I12
S'arm_right_5_joint'
p676
tp677
Rp678
ag502
(I0
(lp679
F0.0
aF0.0
aF1.0
aI01
I13
S'arm_right_6_joint'
p680
tp681
Rp682
ag502
(I0
(lp683
F0.0
aF0.0
aF1.0
aI01
I14
S'arm_right_7_joint'
p684
tp685
Rp686
ag502
(I6
(lp687
F0.0
aF0.0
aF1.0
aI01
I15
S'arm_right_tool_joint'
p688
tp689
Rp690
ag502
(I6
(lp691
F0.0
aF0.0
aF1.0
aI01
I39
S'hand_right_palm_joint'
p692
tp693
Rp694
ag502
(I6
(lp695
F0.0
aF0.0
aF1.0
aI01
I30
S'hand_right_grasping_frame_joint'
p696
tp697
Rp698
ag502
(I0
(lp699
F0.0
aF0.0
aF1.0
aI01
I31
S'hand_right_index_1_joint'
p700
tp701
Rp702
ag502
(I0
(lp703
F0.0
aF0.0
aF1.0
aI01
I32
S'hand_right_index_2_joint'
p704
tp705
Rp706
ag502
(I0
(lp707
F0.0
aF0.0
aF1.0
aI01
I33
S'hand_right_index_3_joint'
p708
tp709
Rp710
ag502
(I0
(lp711
F0.0
aF0.0
aF1.0
aI01
I34
S'hand_right_index_joint'
p712
tp713
Rp714
ag502
(I0
(lp715
F0.0
aF0.0
aF1.0
aI01
I35
S'hand_right_middle_1_joint'
p716
tp717
Rp718
ag502
(I0
(lp719
F0.0
aF0.0
aF1.0
aI01
I36
S'hand_right_middle_2_joint'
p720
tp721
Rp722
ag502
(I0
(lp723
F0.0
aF0.0
aF1.0
aI01
I37
S'hand_right_middle_3_joint'
p724
tp725
Rp726
ag502
(I0
(lp727
F0.0
aF0.0
aF1.0
aI01
I38
S'hand_right_middle_joint'
p728
tp729
Rp730
ag502
(I0
(lp731
F0.0
aF0.0
aF1.0
aI01
I40
S'hand_right_thumb_joint'
p732
tp733
Rp734
ag502
(I6
(lp735
F0.0
aF0.0
aF1.0
aI01
I16
S'back_camera_frame_joint'
p736
tp737
Rp738
ag502
(I6
(lp739
F0.0
aF0.0
aF1.0
aI01
I17
S'back_camera_gazebo_back_camera_frame_joint'
p740
tp741
Rp742
ag502
(I6
(lp743
F0.0
aF0.0
aF1.0
aI01
I18
S'back_camera_optical_frame_joint'
p744
tp745
Rp746
ag502
(I0
(lp747
F0.0
aF0.0
aF1.0
aI01
I41
S'head_1_joint'
p748
tp749
Rp750
ag502
(I0
(lp751
F0.0
aF0.0
aF1.0
aI01
I42
S'head_2_joint'
p752
tp753
Rp754
ag502
(I6
(lp755
F0.0
aF0.0
aF1.0
aI01
I43
S'head_sonar_03_joint'
p756
tp757
Rp758
ag502
(I6
(lp759
F0.0
aF0.0
aF1.0
aI01
I61
S'stereo_frame_joint'
p760
tp761
Rp762
ag502
(I6
(lp763
F0.0
aF0.0
aF1.0
aI01
I62
S'stereo_gazebo_left_camera_frame_joint'
p764
tp765
Rp766
ag502
(I6
(lp767
F0.0
aF0.0
aF1.0
aI01
I63
S'stereo_gazebo_right_camera_frame_joint'
p768
tp769
Rp770
ag502
(I6
(lp771
F0.0
aF0.0
aF1.0
aI01
I64
S'stereo_optical_frame_joint'
p772
tp773
Rp774
ag502
(I6
(lp775
F0.0
aF0.0
aF1.0
aI01
I67
S'torso_sonar_01_joint'
p776
tp777
Rp778
ag502
(I6
(lp779
F0.0
aF0.0
aF1.0
aI01
I68
S'torso_sonar_02_joint'
p780
tp781
Rp782
ag502
(I6
(lp783
F0.0
aF0.0
aF1.0
aI01
I69
S'torso_sonar_04_joint'
p784
tp785
Rp786
a(lp787
I-1
aI0
aI0
aI2
aI3
aI4
aI5
aI6
aI7
aI8
aI0
aI10
aI11
aI12
aI13
aI14
aI15
aI16
aI0
aI18
aI19
aI20
aI21
aI22
aI23
aI24
aI25
aI26
aI27
aI28
aI28
aI30
aI31
aI28
aI28
aI34
aI35
aI28
aI28
aI19
aI39
aI40
aI41
aI42
aI43
aI44
aI45
aI46
aI47
aI47
aI49
aI50
aI47
aI47
aI53
aI54
aI47
aI47
aI19
aI58
aI58
aI19
aI61
aI62
aI62
aI64
aI64
aI64
aI19
aI19
aI19
a(lp788
I0
aI1
aI2
aI3
aI4
aI5
aI6
aI7
aI8
aI9
aI10
aI11
aI12
aI13
aI14
aI15
aI16
aI17
aI18
aI19
aI20
aI21
aI22
aI23
aI24
aI25
aI26
aI27
aI28
aI29
aI30
aI31
aI32
aI33
aI34
aI35
aI36
aI37
aI38
aI39
aI40
aI41
aI42
aI43
aI44
aI45
aI46
aI47
aI48
aI49
aI50
aI51
aI52
aI53
aI54
aI55
aI56
aI57
aI58
aI59
aI60
aI61
aI62
aI63
aI64
aI65
aI66
aI67
aI68
aI69
aI70
a(lp789
I-1
aI0
aI0
aI2
aI3
aI4
aI5
aI6
aI7
aI8
aI0
aI10
aI11
aI12
aI13
aI14
aI15
aI16
aI0
aI18
aI19
aI20
aI21
aI22
aI23
aI24
aI25
aI26
aI27
aI28
aI28
aI30
aI31
aI28
aI28
aI34
aI35
aI28
aI28
aI19
aI39
aI40
aI41
aI42
aI43
aI44
aI45
aI46
aI47
aI47
aI49
aI50
aI47
aI47
aI53
aI54
aI47
aI47
aI19
aI58
aI58
aI19
aI61
aI62
aI62
aI64
aI64
aI64
aI19
aI19
aI19
a(lp790
cspacevecalg
ptransformConstructor
p791
((lp792
F1.0
aF0.0
aF0.0
aF0.0
aF1.0
aF0.0
aF0.0
aF0.0
aF1.0
a(lp793
F0.0
aF0.0
aF0.0
atp794
Rp795
ag791
((lp796
F1.0
aF0.0
aF0.0
aF0.0
aF-1.0
aF2.0682310711021444e-13
aF0.0
aF-2.0682310711021444e-13
aF-1.0
a(lp797
F0.0
aF0.0
aF0.0
atp798
Rp799
ag791
((lp800
F1.0
aF0.0
aF0.0
aF0.0
aF1.0
aF0.0
aF0.0
aF0.0
aF1.0
a(lp801
F0.0
aF0.075
aF-0.14353
atp802
Rp803
ag791
((lp804
F4.896638650109253e-12
aF0.0
aF1.0
aF0.0
aF1.0
aF0.0
aF-1.0
aF0.0
aF4.896638650109253e-12
a(lp805
F0.0
aF0.0
aF0.0
atp806
Rp807
ag791
((lp808
F1.0
aF0.0
aF0.0
aF0.0
aF4.896638650109253e-12
aF1.0
aF0.0
aF-1.0
aF4.896638650109253e-12
a(lp809
F0.0
aF0.0
aF0.0
atp810
Rp811
ag791
((lp812
F1.0
aF0.0
aF0.0
aF0.0
aF1.0
aF0.0
aF0.0
aF0.0
aF1.0
a(lp813
F0.3
aF0.0
aF0.0
atp814
Rp815
ag791
((lp816
F1.0
aF0.0
aF0.0
aF0.0
aF1.0
aF0.0
aF0.0
aF0.0
aF1.0
a(lp817
F0.3
aF0.0
aF0.0
atp818
Rp819
ag791
((lp820
F1.0
aF0.0
aF0.0
aF0.0
aF4.896638650109253e-12
aF-1.0
aF0.0
aF1.0
aF4.896638650109253e-12
a(lp821
F0.0
aF0.0
aF0.0
atp822
Rp823
ag791
((lp824
F4.896638650109253e-12
aF0.0
aF-1.0
aF0.0
aF1.0
aF0.0
aF1.0
aF0.0
aF4.896638650109253e-12
a(lp825
F0.117
aF0.0
aF0.0
atp826
Rp827
ag791
((lp828
F0.866025403784588
aF-0.49999999999974126
aF0.0
aF0.49999999999974126
aF0.866025403784588
aF0.0
aF0.0
aF0.0
aF1.0
a(lp829
F0.085
aF0.01
aF0.073
atp830
Rp831
ag791
((lp832
F1.0
aF0.0
aF0.0
aF0.0
aF1.0
aF0.0
aF0.0
aF0.0
aF1.0
a(lp833
F0.0
aF-0.075
aF-0.14353
atp834
Rp835
ag791
((lp836
F4.896638650109253e-12
aF0.0
aF1.0
aF0.0
aF1.0
aF0.0
aF-1.0
aF0.0
aF4.896638650109253e-12
a(lp837
F0.0
aF0.0
aF0.0
atp838
Rp839
ag791
((lp840
F1.0
aF0.0
aF0.0
aF0.0
aF4.896638650109253e-12
aF1.0
aF0.0
aF-1.0
aF4.896638650109253e-12
a(lp841
F0.0
aF0.0
aF0.0
atp842
Rp843
ag791
((lp844
F1.0
aF0.0
aF0.0
aF0.0
aF1.0
aF0.0
aF0.0
aF0.0
aF1.0
a(lp845
F0.3
aF0.0
aF0.0
atp846
Rp847
ag791
((lp848
F1.0
aF0.0
aF0.0
aF0.0
aF1.0
aF0.0
aF0.0
aF0.0
aF1.0
a(lp849
F0.3
aF0.0
aF0.0
atp850
Rp851
ag791
((lp852
F1.0
aF0.0
aF0.0
aF0.0
aF4.896638650109253e-12
aF-1.0
aF0.0
aF1.0
aF4.896638650109253e-12
a(lp853
F0.0
aF0.0
aF0.0
atp854
Rp855
ag791
((lp856
F4.896638650109253e-12
aF0.0
aF-1.0
aF0.0
aF1.0
aF0.0
aF1.0
aF0.0
aF4.896638650109253e-12
a(lp857
F0.117
aF0.0
aF0.0
atp858
Rp859
ag791
((lp860
F0.866025403784588
aF0.49999999999974126
aF0.0
aF-0.49999999999974126
aF0.866025403784588
aF0.0
aF0.0
aF0.0
aF1.0
a(lp861
F0.085
aF-0.01
aF0.073
atp862
Rp863
ag791
((lp864
F1.0
aF0.0
aF0.0
aF0.0
aF1.0
aF0.0
aF0.0
aF0.0
aF1.0
a(lp865
F0.0
aF0.0
aF0.14353
atp866
Rp867
ag791
((lp868
F1.0
aF0.0
aF0.0
aF0.0
aF4.896638650109253e-12
aF1.0
aF0.0
aF-1.0
aF4.896638650109253e-12
a(lp869
F0.0
aF0.0
aF0.0
atp870
Rp871
ag791
((lp872
F1.0
aF0.0
aF0.0
aF0.0
aF-0.9659258262889017
aF-0.2588190451031426
aF0.0
aF0.2588190451031426
aF-0.9659258262889017
a(lp873
F0.0
aF-0.31827
aF0.0
atp874
Rp875
ag791
((lp876
F1.2674306049120787e-12
aF-1.668387650255454e-13
aF0.9999999999999999
aF0.2588190450984128
aF0.965925826290169
aF-1.668387650255454e-13
aF-0.965925826290169
aF0.2588190450984128
aF1.2674306049120787e-12
a(lp877
F0.0
aF0.0
aF-0.21749
atp878
Rp879
ag791
((lp880
F1.0
aF0.0
aF0.0
aF0.0
aF4.896638650109253e-12
aF1.0
aF0.0
aF-1.0
aF4.896638650109253e-12
a(lp881
F0.02
aF-0.142
aF0.0
atp882
Rp883
ag791
((lp884
F4.896638650109253e-12
aF0.0
aF-1.0
aF0.0
aF1.0
aF0.0
aF1.0
aF0.0
aF4.896638650109253e-12
a(lp885
F0.0
aF-0.02
aF-0.088
atp886
Rp887
ag791
((lp888
F4.896638650109253e-12
aF0.0
aF1.0
aF0.0
aF1.0
aF0.0
aF-1.0
aF0.0
aF4.896638650109253e-12
a(lp889
F-0.088
aF0.02
aF0.0
atp890
Rp891
ag791
((lp892
F1.0
aF0.0
aF0.0
aF0.0
aF4.896638650109253e-12
aF-1.0
aF0.0
aF1.0
aF4.896638650109253e-12
a(lp893
F0.0
aF0.0
aF-0.15
atp894
Rp895
ag791
((lp896
F1.0
aF0.0
aF0.0
aF0.0
aF4.896638650109253e-12
aF1.0
aF0.0
aF-1.0
aF4.896638650109253e-12
a(lp897
F0.0
aF0.0
aF0.0
atp898
Rp899
ag791
((lp900
F4.896638650109253e-12
aF1.0
aF4.896583138958022e-12
aF5.551115123125783e-17
aF4.896638650109253e-12
aF-1.0
aF-1.0
aF4.896583138958022e-12
aF0.0
a(lp901
F0.0
aF0.0
aF-0.046
atp902
Rp903
ag791
((lp904
F1.0
aF0.0
aF0.0
aF0.0
aF1.0
aF0.0
aF0.0
aF0.0
aF1.0
a(lp905
F0.0
aF0.0
aF0.0
atp906
Rp907
ag791
((lp908
F1.0
aF0.0
aF0.0
aF0.0
aF1.0
aF0.0
aF0.0
aF0.0
aF1.0
a(lp909
F0.055
aF-0.054
aF0.018
atp910
Rp911
ag791
((lp912
F4.896638650109253e-12
aF-1.0
aF2.0682310711021442e-13
aF-1.0
aF-4.8965276278067904e-12
aF1.0127333192354932e-24
aF1.262177448353619e-29
aF-2.0682310711021442e-13
aF-1.0
a(lp913
F0.101
aF-0.0025
aF0.0165
atp914
Rp915
ag791
((lp916
F1.0
aF0.0
aF0.0
aF0.0
aF1.0
aF0.0
aF0.0
aF0.0
aF1.0
a(lp917
F0.00357
aF-0.04084
aF0.0
atp918
Rp919
ag791
((lp920
F1.0
aF0.0
aF0.0
aF0.0
aF1.0
aF0.0
aF0.0
aF0.0
aF1.0
a(lp921
F0.00572
aF-0.0269
aF0.0
atp922
Rp923
ag791
((lp924
F4.896638650109253e-12
aF-1.0
aF2.0682310711021442e-13
aF-1.0
aF-4.8965276278067904e-12
aF1.0127333192354932e-24
aF1.262177448353619e-29
aF-2.0682310711021442e-13
aF-1.0
a(lp925
F0.101
aF-0.0025
aF0.0165
atp926
Rp927
ag791
((lp928
F4.896638650109253e-12
aF-1.0
aF2.0682310711021442e-13
aF-1.0
aF-4.8965276278067904e-12
aF1.0127333192354932e-24
aF1.262177448353619e-29
aF-2.0682310711021442e-13
aF-1.0
a(lp929
F0.101
aF-0.0025
aF-0.0165
atp930
Rp931
ag791
((lp932
F1.0
aF0.0
aF0.0
aF0.0
aF1.0
aF0.0
aF0.0
aF0.0
aF1.0
a(lp933
F0.00357
aF-0.04084
aF0.0
atp934
Rp935
ag791
((lp936
F1.0
aF0.0
aF0.0
aF0.0
aF1.0
aF0.0
aF0.0
aF0.0
aF1.0
a(lp937
F0.00572
aF-0.0269
aF0.0
atp938
Rp939
ag791
((lp940
F4.896638650109253e-12
aF-1.0
aF2.0682310711021442e-13
aF-1.0
aF-4.8965276278067904e-12
aF1.0127333192354932e-24
aF1.262177448353619e-29
aF-2.0682310711021442e-13
aF-1.0
a(lp941
F0.101
aF-0.0025
aF-0.0165
atp942
Rp943
ag791
((lp944
F-0.21918557339060274
aF0.2249510543436089
aF0.9493970231505529
aF0.05060297684944713
aF0.9743700647852943
aF-0.21918557339449968
aF-0.974370064786171
aF-1.3877787807814457e-17
aF-0.22495105433981188
a(lp945
F0.03649
aF-0.008
aF0.02
atp946
Rp947
ag791
((lp948
F1.0
aF-0.0
aF0.0
aF0.0
aF-0.9659258262889017
aF0.2588190451031426
aF0.0
aF-0.2588190451031426
aF-0.9659258262889017
a(lp949
F0.0
aF-0.31827
aF0.0
atp950
Rp951
ag791
((lp952
F1.2674306049120787e-12
aF-1.668387650255454e-13
aF-0.9999999999999999
aF0.2588190450984128
aF0.965925826290169
aF1.668387650255454e-13
aF0.965925826290169
aF-0.2588190450984128
aF1.2674306049120787e-12
a(lp953
F0.0
aF0.0
aF0.21749
atp954
Rp955
ag791
((lp956
F1.0
aF0.0
aF0.0
aF0.0
aF4.896638650109253e-12
aF-1.0
aF0.0
aF1.0
aF4.896638650109253e-12
a(lp957
F0.02
aF-0.142
aF0.0
atp958
Rp959
ag791
((lp960
F4.896638650109253e-12
aF0.0
aF1.0
aF0.0
aF1.0
aF0.0
aF-1.0
aF0.0
aF4.896638650109253e-12
a(lp961
F0.0
aF-0.02
aF0.088
atp962
Rp963
ag791
((lp964
F4.896638650109253e-12
aF0.0
aF-1.0
aF0.0
aF1.0
aF0.0
aF1.0
aF0.0
aF4.896638650109253e-12
a(lp965
F-0.088
aF0.02
aF0.0
atp966
Rp967
ag791
((lp968
F1.0
aF0.0
aF0.0
aF0.0
aF4.896638650109253e-12
aF1.0
aF0.0
aF-1.0
aF4.896638650109253e-12
a(lp969
F0.0
aF0.0
aF0.15
atp970
Rp971
ag791
((lp972
F1.0
aF0.0
aF0.0
aF0.0
aF4.896638650109253e-12
aF-1.0
aF0.0
aF1.0
aF4.896638650109253e-12
a(lp973
F0.0
aF0.0
aF0.0
atp974
Rp975
ag791
((lp976
F4.896638650109253e-12
aF-1.0
aF-4.896583138958022e-12
aF-5.551115123125783e-17
aF4.896638650109253e-12
aF-1.0
aF1.0
aF4.896583138958022e-12
aF0.0
a(lp977
F0.0
aF0.0
aF0.046
atp978
Rp979
ag791
((lp980
F1.0
aF0.0
aF0.0
aF0.0
aF1.0
aF0.0
aF0.0
aF0.0
aF1.0
a(lp981
F0.0
aF0.0
aF0.0
atp982
Rp983
ag791
((lp984
F1.0
aF0.0
aF0.0
aF0.0
aF1.0
aF0.0
aF0.0
aF0.0
aF1.0
a(lp985
F0.055
aF0.054
aF0.018
atp986
Rp987
ag791
((lp988
F4.896638650109253e-12
aF-1.0
aF0.0
aF1.0
aF4.896638650109253e-12
aF0.0
aF0.0
aF0.0
aF1.0
a(lp989
F0.101
aF0.0025
aF0.0165
atp990
Rp991
ag791
((lp992
F1.0
aF0.0
aF0.0
aF0.0
aF1.0
aF0.0
aF0.0
aF0.0
aF1.0
a(lp993
F0.00357
aF-0.04084
aF0.0
atp994
Rp995
ag791
((lp996
F1.0
aF0.0
aF0.0
aF0.0
aF1.0
aF0.0
aF0.0
aF0.0
aF1.0
a(lp997
F0.00572
aF-0.0269
aF0.0
atp998
Rp999
ag791
((lp1000
F4.896638650109253e-12
aF-1.0
aF0.0
aF1.0
aF4.896638650109253e-12
aF0.0
aF0.0
aF0.0
aF1.0
a(lp1001
F0.101
aF0.0025
aF0.0165
atp1002
Rp1003
ag791
((lp1004
F4.896638650109253e-12
aF-1.0
aF0.0
aF1.0
aF4.896638650109253e-12
aF0.0
aF0.0
aF0.0
aF1.0
a(lp1005
F0.101
aF0.0025
aF-0.0165
atp1006
Rp1007
ag791
((lp1008
F1.0
aF0.0
aF0.0
aF0.0
aF1.0
aF0.0
aF0.0
aF0.0
aF1.0
a(lp1009
F0.00357
aF-0.04084
aF0.0
atp1010
Rp1011
ag791
((lp1012
F1.0
aF0.0
aF0.0
aF0.0
aF1.0
aF0.0
aF0.0
aF0.0
aF1.0
a(lp1013
F0.00572
aF-0.0269
aF0.0
atp1014
Rp1015
ag791
((lp1016
F4.896638650109253e-12
aF-1.0
aF0.0
aF1.0
aF4.896638650109253e-12
aF0.0
aF0.0
aF0.0
aF1.0
a(lp1017
F0.101
aF0.0025
aF-0.0165
atp1018
Rp1019
ag791
((lp1020
F-0.21918557339060274
aF0.2249510543434125
aF-0.9493970231505993
aF-0.050602976849447145
aF-0.9743700647853397
aF-0.21918557339429812
aF-0.9743700647861708
aF4.651834473179406e-14
aF0.224951054339812
a(lp1021
F0.03649
aF0.008
aF0.02
atp1022
Rp1023
ag791
((lp1024
F-1.0
aF1.0127333192354932e-24
aF2.0682310711021442e-13
aF-2.0682310711021442e-13
aF-4.8965276278067904e-12
aF-1.0
aF1.262177448353619e-29
aF-1.0
aF4.896638650109253e-12
a(lp1025
F-0.128
aF-0.317
aF0.0
atp1026
Rp1027
ag791
((lp1028
F1.0
aF0.0
aF0.0
aF0.0
aF1.0
aF0.0
aF0.0
aF0.0
aF1.0
a(lp1029
F0.0
aF0.0
aF0.0
atp1030
Rp1031
ag791
((lp1032
F4.896638650109253e-12
aF4.896583138958022e-12
aF1.0
aF-1.0
aF0.0
aF4.896583138958022e-12
aF5.551115123125783e-17
aF-1.0
aF4.896638650109253e-12
a(lp1033
F0.0
aF0.0
aF0.0
atp1034
Rp1035
ag791
((lp1036
F1.0
aF0.0
aF0.0
aF0.0
aF4.896638650109253e-12
aF-1.0
aF0.0
aF1.0
aF4.896638650109253e-12
a(lp1037
F0.0
aF-0.42316
aF0.0
atp1038
Rp1039
ag791
((lp1040
F1.0
aF0.0
aF0.0
aF0.0
aF4.896638650109253e-12
aF1.0
aF0.0
aF-1.0
aF4.896638650109253e-12
a(lp1041
F0.0445
aF0.0
aF0.0
atp1042
Rp1043
ag791
((lp1044
F1.0
aF0.0
aF0.0
aF0.0
aF0.0007963267107332639
aF-0.9999996829318347
aF0.0
aF0.9999996829318347
aF0.0007963267107332639
a(lp1045
F0.11
aF-0.195
aF0.0
atp1046
Rp1047
ag791
((lp1048
F0.9997607618232273
aF-0.008398774184046467
aF-0.020196032056956647
aF-0.020128603047296023
aF0.008036935862006711
aF-0.9997650959106914
aF0.008559115491954244
aF0.9999324318443497
aF0.007865957528489731
a(lp1049
F0.08203
aF-0.0935
aF0.0365
atp1050
Rp1051
ag791
((lp1052
F1.0
aF0.0
aF0.0
aF0.0
aF1.0
aF0.0
aF0.0
aF0.0
aF1.0
a(lp1053
F0.0
aF0.0
aF0.0
atp1054
Rp1055
ag791
((lp1056
F1.0
aF0.0
aF0.0
aF0.0
aF1.0
aF0.0
aF0.0
aF0.0
aF1.0
a(lp1057
F0.0
aF-0.073
aF0.0
atp1058
Rp1059
ag791
((lp1060
F4.896638650109253e-12
aF4.896583138958022e-12
aF1.0
aF-1.0
aF0.0
aF4.896583138958022e-12
aF5.551115123125783e-17
aF-1.0
aF4.896638650109253e-12
a(lp1061
F0.0
aF0.0
aF0.0
atp1062
Rp1063
ag791
((lp1064
F0.9396926207858625
aF-0.34202014332579483
aF0.0
aF0.34202014332579483
aF0.9396926207858625
aF0.0
aF0.0
aF0.0
aF1.0
a(lp1065
F0.1
aF-0.029
aF0.0
atp1066
Rp1067
ag791
((lp1068
F1.0
aF0.0
aF0.0
aF0.0
aF1.0
aF0.0
aF0.0
aF0.0
aF1.0
a(lp1069
F0.15
aF-0.18
aF0.0
atp1070
Rp1071
ag791
((lp1072
F-1.0
aF0.0
aF-2.0682310711021444e-13
aF0.0
aF1.0
aF-0.0
aF2.0682310711021444e-13
aF0.0
aF-1.0
a(lp1073
F-0.17
aF-0.029
aF0.0
atp1074
Rp1075
atp1076
Rp1077
(dp1078
Vleg_right_4_link
p1079
(V./meshes/leg/leg_4.obj
p1080
g791
((lp1081
F1.0
aF0.0
aF0.0
aF0.0
aF1.0
aF0.0
aF-0.0
aF0.0
aF1.0
a(lp1082
F0.0
aF0.0
aF0.0
atp1083
Rp1084
(lp1085
F1.0
aF1.0
aF-1.0
atp1086
sVarm_left_6_link
p1087
(V./meshes/arm/arm_6.obj
p1088
g791
((lp1089
F1.0
aF0.0
aF0.0
aF0.0
aF1.0
aF0.0
aF-0.0
aF0.0
aF1.0
a(lp1090
F0.0
aF0.0
aF0.0
atp1091
Rp1092
(lp1093
F1.0
aF1.0
aF1.0
atp1094
sVleg_left_3_link
p1095
(V./meshes/leg/leg_3.obj
p1096
g791
((lp1097
F1.0
aF0.0
aF0.0
aF0.0
aF1.0
aF0.0
aF-0.0
aF0.0
aF1.0
a(lp1098
F0.0
aF0.0
aF0.0
atp1099
Rp1100
(lp1101
F1.0
aF1.0
aF1.0
atp1102
sVhead_1_link
p1103
(V./meshes/head/head_1.obj
p1104
g791
((lp1105
F1.0
aF0.0
aF0.0
aF0.0
aF1.0
aF0.0
aF-0.0
aF0.0
aF1.0
a(lp1106
F-0.03
aF0.0
aF0.0
atp1107
Rp1108
(lp1109
F1.0
aF1.0
aF1.0
atp1110
sVarm_right_5_link
p1111
(V./meshes/arm/arm_5.obj
p1112
g791
((lp1113
F1.0
aF0.0
aF0.0
aF0.0
aF1.0
aF0.0
aF-0.0
aF0.0
aF1.0
a(lp1114
F0.0
aF0.0
aF0.0
atp1115
Rp1116
(lp1117
F1.0
aF1.0
aF-1.0
atp1118
sVhand_right_middle_2_link
p1119
(V./meshes/hand/hand_finger_2.obj
p1120
g791
((lp1121
F1.0
aF0.0
aF0.0
aF0.0
aF1.0
aF0.0
aF-0.0
aF0.0
aF1.0
a(lp1122
F0.0
aF0.0
aF0.0
atp1123
Rp1124
(lp1125
F1.0
aF1.0
aF1.0
atp1126
sVarm_left_2_link
p1127
(V./meshes/arm/arm_2.obj
p1128
g791
((lp1129
F1.0
aF0.0
aF0.0
aF0.0
aF1.0
aF0.0
aF-0.0
aF0.0
aF1.0
a(lp1130
F0.0
aF0.0
aF0.0
atp1131
Rp1132
(lp1133
F1.0
aF1.0
aF1.0
atp1134
sVleg_left_6_link
p1135
(V./meshes/leg/leg_6.obj
p1136
g791
((lp1137
F1.0
aF0.0
aF0.0
aF0.0
aF1.0
aF0.0
aF-0.0
aF0.0
aF1.0
a(lp1138
F0.0
aF0.0
aF0.0
atp1139
Rp1140
(lp1141
F1.0
aF1.0
aF1.0
atp1142
sVleg_right_3_link
p1143
(V./meshes/leg/leg_3.obj
p1144
g791
((lp1145
F1.0
aF0.0
aF0.0
aF0.0
aF1.0
aF0.0
aF-0.0
aF0.0
aF1.0
a(lp1146
F0.0
aF0.0
aF0.0
atp1147
Rp1148
(lp1149
F1.0
aF1.0
aF-1.0
atp1150
sVhand_left_middle_3_link
p1151
(V./meshes/hand/hand_finger_3.obj
p1152
g791
((lp1153
F1.0
aF0.0
aF0.0
aF0.0
aF1.0
aF0.0
aF-0.0
aF0.0
aF1.0
a(lp1154
F0.0
aF0.0
aF0.0
atp1155
Rp1156
(lp1157
F1.0
aF1.0
aF-1.0
atp1158
sVarm_right_1_link
p1159
(V./meshes/arm/arm_1.obj
p1160
g791
((lp1161
F1.0
aF0.0
aF0.0
aF0.0
aF1.0
aF0.0
aF-0.0
aF0.0
aF1.0
a(lp1162
F0.0
aF0.0
aF0.0
atp1163
Rp1164
(lp1165
F1.0
aF1.0
aF-1.0
atp1166
sVbase_link
p1167
(V./meshes/base/base.obj
p1168
g791
((lp1169
F1.0
aF0.0
aF0.0
aF0.0
aF1.0
aF0.0
aF-0.0
aF0.0
aF1.0
a(lp1170
F0.0
aF0.0
aF0.0
atp1171
Rp1172
(lp1173
F1.0
aF1.0
aF1.0
atp1174
sVarm_right_6_link
p1175
(V./meshes/arm/arm_6.obj
p1176
g791
((lp1177
F1.0
aF0.0
aF0.0
aF0.0
aF1.0
aF0.0
aF-0.0
aF0.0
aF1.0
a(lp1178
F0.0
aF0.0
aF0.0
atp1179
Rp1180
(lp1181
F1.0
aF1.0
aF-1.0
atp1182
sVleg_left_4_link
p1183
(V./meshes/leg/leg_4.obj
p1184
g791
((lp1185
F1.0
aF0.0
aF0.0
aF0.0
aF1.0
aF0.0
aF-0.0
aF0.0
aF1.0
a(lp1186
F0.0
aF0.0
aF0.0
atp1187
Rp1188
(lp1189
F1.0
aF1.0
aF1.0
atp1190
sVarm_right_2_link
p1191
(V./meshes/arm/arm_2.obj
p1192
g791
((lp1193
F1.0
aF0.0
aF0.0
aF0.0
aF1.0
aF0.0
aF-0.0
aF0.0
aF1.0
a(lp1194
F0.0
aF0.0
aF0.0
atp1195
Rp1196
(lp1197
F1.0
aF1.0
aF-1.0
atp1198
sVarm_right_4_link
p1199
(V./meshes/arm/arm_4.obj
p1200
g791
((lp1201
F1.0
aF0.0
aF0.0
aF0.0
aF1.0
aF0.0
aF-0.0
aF0.0
aF1.0
a(lp1202
F0.0
aF0.0
aF0.0
atp1203
Rp1204
(lp1205
F1.0
aF1.0
aF-1.0
atp1206
sVarm_left_4_link
p1207
(V./meshes/arm/arm_4.obj
p1208
g791
((lp1209
F1.0
aF0.0
aF0.0
aF0.0
aF1.0
aF0.0
aF-0.0
aF0.0
aF1.0
a(lp1210
F0.0
aF0.0
aF0.0
atp1211
Rp1212
(lp1213
F1.0
aF1.0
aF1.0
atp1214
sVleg_right_1_link
p1215
(V./meshes/leg/leg_1.obj
p1216
g791
((lp1217
F1.0
aF0.0
aF0.0
aF0.0
aF1.0
aF0.0
aF-0.0
aF0.0
aF1.0
a(lp1218
F0.0
aF0.0
aF0.0
atp1219
Rp1220
(lp1221
F1.0
aF1.0
aF1.0
atp1222
sVarm_right_3_link
p1223
(V./meshes/arm/arm_3.obj
p1224
g791
((lp1225
F1.0
aF0.0
aF0.0
aF0.0
aF1.0
aF0.0
aF-0.0
aF0.0
aF1.0
a(lp1226
F0.0
aF0.0
aF0.0
atp1227
Rp1228
(lp1229
F1.0
aF1.0
aF-1.0
atp1230
sVhead_2_link
p1231
(V./meshes/head/head_2.obj
p1232
g791
((lp1233
F1.0
aF0.0
aF0.0
aF0.0
aF1.0
aF0.0
aF-0.0
aF0.0
aF1.0
a(lp1234
F-0.03
aF0.0
aF0.0
atp1235
Rp1236
(lp1237
F1.0
aF1.0
aF1.0
atp1238
sVarm_left_3_link
p1239
(V./meshes/arm/arm_3.obj
p1240
g791
((lp1241
F1.0
aF0.0
aF0.0
aF0.0
aF1.0
aF0.0
aF-0.0
aF0.0
aF1.0
a(lp1242
F0.0
aF0.0
aF0.0
atp1243
Rp1244
(lp1245
F1.0
aF1.0
aF1.0
atp1246
sVhand_right_palm_link
p1247
(V./meshes/hand/hand_palm.obj
p1248
g791
((lp1249
F1.0
aF0.0
aF0.0
aF0.0
aF1.0
aF0.0
aF-0.0
aF0.0
aF1.0
a(lp1250
F0.0
aF0.0
aF0.0
atp1251
Rp1252
(lp1253
F1.0
aF-1.0
aF1.0
atp1254
sVhand_left_middle_1_link
p1255
(V./meshes/hand/hand_finger_1.obj
p1256
g791
((lp1257
F1.0
aF0.0
aF0.0
aF0.0
aF1.0
aF0.0
aF-0.0
aF0.0
aF1.0
a(lp1258
F0.0
aF0.0
aF0.0
atp1259
Rp1260
(lp1261
F1.0
aF1.0
aF-1.0
atp1262
sVarm_left_1_link
p1263
(V./meshes/arm/arm_1.obj
p1264
g791
((lp1265
F1.0
aF0.0
aF0.0
aF0.0
aF1.0
aF0.0
aF-0.0
aF0.0
aF1.0
a(lp1266
F0.0
aF0.0
aF0.0
atp1267
Rp1268
(lp1269
F1.0
aF1.0
aF1.0
atp1270
sVhand_left_index_3_link
p1271
(V./meshes/hand/hand_finger_3.obj
p1272
g791
((lp1273
F1.0
aF0.0
aF0.0
aF0.0
aF1.0
aF0.0
aF-0.0
aF0.0
aF1.0
a(lp1274
F0.0
aF0.0
aF0.0
atp1275
Rp1276
(lp1277
F1.0
aF1.0
aF1.0
atp1278
sVleg_right_6_link
p1279
(V./meshes/leg/leg_6.obj
p1280
g791
((lp1281
F1.0
aF0.0
aF0.0
aF0.0
aF1.0
aF0.0
aF-0.0
aF0.0
aF1.0
a(lp1282
F0.0
aF0.0
aF0.0
atp1283
Rp1284
(lp1285
F1.0
aF-1.0
aF1.0
atp1286
sVhand_right_thumb_link
p1287
(V./meshes/hand/hand_thumb.obj
p1288
g791
((lp1289
F1.0
aF0.0
aF0.0
aF0.0
aF1.0
aF0.0
aF-0.0
aF0.0
aF1.0
a(lp1290
F0.0
aF0.0
aF0.0
atp1291
Rp1292
(lp1293
F1.0
aF1.0
aF-1.0
atp1294
sVhand_right_index_1_link
p1295
(V./meshes/hand/hand_finger_1.obj
p1296
g791
((lp1297
F1.0
aF0.0
aF0.0
aF0.0
aF1.0
aF0.0
aF-0.0
aF0.0
aF1.0
a(lp1298
F0.0
aF0.0
aF0.0
atp1299
Rp1300
(lp1301
F1.0
aF1.0
aF-1.0
atp1302
sVhand_right_index_2_link
p1303
(V./meshes/hand/hand_finger_2.obj
p1304
g791
((lp1305
F1.0
aF0.0
aF0.0
aF0.0
aF1.0
aF0.0
aF-0.0
aF0.0
aF1.0
a(lp1306
F0.0
aF0.0
aF0.0
atp1307
Rp1308
(lp1309
F1.0
aF1.0
aF-1.0
atp1310
sVhand_left_index_2_link
p1311
(V./meshes/hand/hand_finger_2.obj
p1312
g791
((lp1313
F1.0
aF0.0
aF0.0
aF0.0
aF1.0
aF0.0
aF-0.0
aF0.0
aF1.0
a(lp1314
F0.0
aF0.0
aF0.0
atp1315
Rp1316
(lp1317
F1.0
aF1.0
aF1.0
atp1318
sVleg_left_1_link
p1319
(V./meshes/leg/leg_1.obj
p1320
g791
((lp1321
F1.0
aF0.0
aF0.0
aF0.0
aF1.0
aF0.0
aF-0.0
aF0.0
aF1.0
a(lp1322
F0.0
aF0.0
aF0.0
atp1323
Rp1324
(lp1325
F1.0
aF1.0
aF1.0
atp1326
sVhand_right_index_3_link
p1327
(V./meshes/hand/hand_finger_3.obj
p1328
g791
((lp1329
F1.0
aF0.0
aF0.0
aF0.0
aF1.0
aF0.0
aF-0.0
aF0.0
aF1.0
a(lp1330
F0.0
aF0.0
aF0.0
atp1331
Rp1332
(lp1333
F1.0
aF1.0
aF-1.0
atp1334
sVhand_left_palm_link
p1335
(V./meshes/hand/hand_palm.obj
p1336
g791
((lp1337
F1.0
aF0.0
aF0.0
aF0.0
aF1.0
aF0.0
aF-0.0
aF0.0
aF1.0
a(lp1338
F0.0
aF0.0
aF0.0
atp1339
Rp1340
(lp1341
F1.0
aF1.0
aF1.0
atp1342
sVhand_right_middle_3_link
p1343
(V./meshes/hand/hand_finger_3.obj
p1344
g791
((lp1345
F1.0
aF0.0
aF0.0
aF0.0
aF1.0
aF0.0
aF-0.0
aF0.0
aF1.0
a(lp1346
F0.0
aF0.0
aF0.0
atp1347
Rp1348
(lp1349
F1.0
aF1.0
aF1.0
atp1350
sVhand_left_thumb_link
p1351
(V./meshes/hand/hand_thumb.obj
p1352
g791
((lp1353
F1.0
aF0.0
aF0.0
aF0.0
aF1.0
aF0.0
aF-0.0
aF0.0
aF1.0
a(lp1354
F0.0
aF0.0
aF0.0
atp1355
Rp1356
(lp1357
F1.0
aF1.0
aF1.0
atp1358
sVhand_left_middle_2_link
p1359
(V./meshes/hand/hand_finger_2.obj
p1360
g791
((lp1361
F1.0
aF0.0
aF0.0
aF0.0
aF1.0
aF0.0
aF-0.0
aF0.0
aF1.0
a(lp1362
F0.0
aF0.0
aF0.0
atp1363
Rp1364
(lp1365
F1.0
aF1.0
aF-1.0
atp1366
sVhand_left_index_1_link
p1367
(V./meshes/hand/hand_finger_1.obj
p1368
g791
((lp1369
F1.0
aF0.0
aF0.0
aF0.0
aF1.0
aF0.0
aF-0.0
aF0.0
aF1.0
a(lp1370
F0.0
aF0.0
aF0.0
atp1371
Rp1372
(lp1373
F1.0
aF1.0
aF1.0
atp1374
sVhand_right_middle_1_link
p1375
(V./meshes/hand/hand_finger_1.obj
p1376
g791
((lp1377
F1.0
aF0.0
aF0.0
aF0.0
aF1.0
aF0.0
aF-0.0
aF0.0
aF1.0
a(lp1378
F0.0
aF0.0
aF0.0
atp1379
Rp1380
(lp1381
F1.0
aF1.0
aF1.0
atp1382
sVtorso_2_link
p1383
(V./meshes/torso/torso_2.obj
p1384
g791
((lp1385
F1.0
aF0.0
aF0.0
aF0.0
aF1.0
aF0.0
aF-0.0
aF0.0
aF1.0
a(lp1386
F0.0
aF0.0
aF0.0
atp1387
Rp1388
(lp1389
F1.0
aF1.0
aF1.0
atp1390
sVarm_left_5_link
p1391
(V./meshes/arm/arm_5.obj
p1392
g791
((lp1393
F1.0
aF0.0
aF0.0
aF0.0
aF1.0
aF0.0
aF-0.0
aF0.0
aF1.0
a(lp1394
F0.0
aF0.0
aF0.0
atp1395
Rp1396
(lp1397
F1.0
aF1.0
aF1.0
atp1398
stp1399
.